target datalayout = "e-m:e-p270:32:32-p271:32:32-p272:64:64-i64:64-i128:128-f80:128-n8:16:32:64-S128"
target triple = "x86_64-pc-linux-gnu"

%struct.CrxImage = type { i8, i16, i16, i8, i8, i8, i8, i8, i8, i8, i8, ptr, i64, i64, [4 x ptr], ptr, ptr, %class.libraw_memmgr }
%class.libraw_memmgr = type <{ ptr, i32, [4 x i8] }>

; Function Attrs: mustprogress nounwind uwtable
define linkonce_odr void @_ZN13libraw_memmgr7cleanupEv(ptr noundef nonnull align 8 dereferenceable(12) %0) #6 comdat align 2 {
  %2 = alloca ptr, align 8
  %3 = alloca i32, align 4
  store ptr %0, ptr %2, align 8, !tbaa !159
  %4 = load ptr, ptr %2, align 8
  call void @llvm.lifetime.start.p0(i64 4, ptr %3) #19
  store i32 0, ptr %3, align 4, !tbaa !20
  br label %5

5:                                                ; preds = %30, %1
  %6 = load i32, ptr %3, align 4, !tbaa !20
  %7 = icmp slt i32 %6, 512
  br i1 %7, label %9, label %8

8:                                                ; preds = %5
  call void @llvm.lifetime.end.p0(i64 4, ptr %3) #19
  br label %33

9:                                                ; preds = %5
  %10 = getelementptr inbounds nuw %class.libraw_memmgr, ptr %4, i32 0, i32 0
  %11 = load ptr, ptr %10, align 8, !tbaa !252
  %12 = load i32, ptr %3, align 4, !tbaa !20
  %13 = sext i32 %12 to i64
  %14 = getelementptr inbounds ptr, ptr %11, i64 %13
  %15 = load ptr, ptr %14, align 8, !tbaa !162
  %16 = icmp ne ptr %15, null
  br i1 %16, label %17, label %29

17:                                               ; preds = %9
  %18 = getelementptr inbounds nuw %class.libraw_memmgr, ptr %4, i32 0, i32 0
  %19 = load ptr, ptr %18, align 8, !tbaa !252
  %20 = load i32, ptr %3, align 4, !tbaa !20
  %21 = sext i32 %20 to i64
  %22 = getelementptr inbounds ptr, ptr %19, i64 %21
  %23 = load ptr, ptr %22, align 8, !tbaa !162
  call void @free(ptr noundef %23) #19
  %24 = getelementptr inbounds nuw %class.libraw_memmgr, ptr %4, i32 0, i32 0
  %25 = load ptr, ptr %24, align 8, !tbaa !252
  %26 = load i32, ptr %3, align 4, !tbaa !20
  %27 = sext i32 %26 to i64
  %28 = getelementptr inbounds ptr, ptr %25, i64 %27
  store ptr null, ptr %28, align 8, !tbaa !162
  br label %29

29:                                               ; preds = %17, %9
  br label %30

30:                                               ; preds = %29
  %31 = load i32, ptr %3, align 4, !tbaa !20
  %32 = add nsw i32 %31, 1
  store i32 %32, ptr %3, align 4, !tbaa !20
  br label %5, !llvm.loop !253

33:                                               ; preds = %8
  ret void
}

; Function Attrs: mustprogress uwtable
define noundef i32 @_Z16crxFreeImageDataP8CrxImage(ptr noundef %0) #0 {
  %2 = alloca ptr, align 8
  store ptr %0, ptr %2, align 8, !tbaa !125
  %3 = load ptr, ptr %2, align 8, !tbaa !125
  %4 = getelementptr inbounds nuw %struct.CrxImage, ptr %3, i32 0, i32 17
  call void @_ZN13libraw_memmgr7cleanupEv(ptr noundef nonnull align 8 dereferenceable(12) %4)
  ret i32 0
}