; Function Attrs: mustprogress nounwind uwtable
define noundef i32 @_Z16crxFreeImageDataP8CrxImage(ptr noundef readonly captures(none) %0) local_unnamed_addr #7 {
  %2 = getelementptr inbounds nuw i8, ptr %0, i64 88
  br label %3

3:                                                ; preds = %10, %1
  %indvars.iv.i = phi i64 [ 0, %1 ], [ %indvars.iv.next.i, %10 ]
  %4 = load ptr, ptr %2, align 8, !tbaa !142
  %5 = getelementptr inbounds nuw ptr, ptr %4, i64 %indvars.iv.i
  %6 = load ptr, ptr %5, align 8, !tbaa !144
  %.not.i = icmp eq ptr %6, null
  br i1 %.not.i, label %10, label %7

7:                                                ; preds = %3
  tail call void @free(ptr noundef nonnull %6) #21
  %8 = load ptr, ptr %2, align 8, !tbaa !142
  %9 = getelementptr inbounds nuw ptr, ptr %8, i64 %indvars.iv.i
  store ptr null, ptr %9, align 8, !tbaa !144
  br label %10

10:                                               ; preds = %7, %3
  %indvars.iv.next.i = add nuw nsw i64 %indvars.iv.i, 1
  %exitcond.not.i = icmp eq i64 %indvars.iv.next.i, 512
  br i1 %exitcond.not.i, label %_ZN13libraw_memmgr7cleanupEv.exit, label %3, !llvm.loop !223

_ZN13libraw_memmgr7cleanupEv.exit:                ; preds = %10
  ret i32 0
}